target datalayout = "e-m:e-p270:32:32-p271:32:32-p272:64:64-i64:64-i128:128-f80:128-n8:16:32:64-S128"
target triple = "x86_64-pc-linux-gnu"

%struct.ml_dsa_key_st = type { ptr, ptr, ptr, ptr, [32 x i8], [64 x i8], [32 x i8], ptr, ptr, ptr, i32, i32, %struct.vector_st, %struct.vector_st, %struct.vector_st, %struct.vector_st }
%struct.vector_st = type { ptr, i64 }

@.str = private unnamed_addr constant [38 x i8] c"../openssl/crypto/ml_dsa/ml_dsa_key.c\00", align 1
@.str.1 = private unnamed_addr constant [10 x i8] c"SHAKE-128\00", align 1
@.str.2 = private unnamed_addr constant [10 x i8] c"SHAKE-256\00", align 1

; Function Attrs: nounwind uwtable
define void @ossl_ml_dsa_key_free(ptr noundef %0) #0 {
  %2 = alloca ptr, align 8
  store ptr %0, ptr %2, align 8, !tbaa !3
  %3 = load ptr, ptr %2, align 8, !tbaa !3
  %4 = icmp eq ptr %3, null
  br i1 %4, label %5, label %6

5:                                                ; preds = %1
  br label %15

6:                                                ; preds = %1
  %7 = load ptr, ptr %2, align 8, !tbaa !3
  %8 = getelementptr inbounds nuw %struct.ml_dsa_key_st, ptr %7, i32 0, i32 2
  %9 = load ptr, ptr %8, align 8, !tbaa !31
  call void @EVP_MD_free(ptr noundef %9)
  %10 = load ptr, ptr %2, align 8, !tbaa !3
  %11 = getelementptr inbounds nuw %struct.ml_dsa_key_st, ptr %10, i32 0, i32 3
  %12 = load ptr, ptr %11, align 8, !tbaa !32
  call void @EVP_MD_free(ptr noundef %12)
  %13 = load ptr, ptr %2, align 8, !tbaa !3
  call void @ossl_ml_dsa_key_reset(ptr noundef %13)
  %14 = load ptr, ptr %2, align 8, !tbaa !3
  call void @CRYPTO_free(ptr noundef %14, ptr noundef @.str, i32 noundef 145)
  br label %15

15:                                               ; preds = %6, %5
  ret void
}

; Function Attrs: nounwind uwtable
define ptr @ossl_ml_dsa_key_new(ptr noundef %0, ptr noundef %1, i32 noundef %2) #0 {
  %4 = alloca ptr, align 8
  %5 = alloca ptr, align 8
  %6 = alloca ptr, align 8
  %7 = alloca i32, align 4
  %8 = alloca ptr, align 8
  %9 = alloca ptr, align 8
  %10 = alloca i32, align 4
  store ptr %0, ptr %5, align 8, !tbaa !28
  store ptr %1, ptr %6, align 8, !tbaa !22
  store i32 %2, ptr %7, align 4, !tbaa !21
  call void @llvm.lifetime.start.p0(i64 8, ptr %8) #7
  call void @llvm.lifetime.start.p0(i64 8, ptr %9) #7
  %11 = load i32, ptr %7, align 4, !tbaa !21
  %12 = call ptr @ossl_ml_dsa_params_get(i32 noundef %11)
  store ptr %12, ptr %9, align 8, !tbaa !29
  %13 = load ptr, ptr %9, align 8, !tbaa !29
  %14 = icmp eq ptr %13, null
  br i1 %14, label %15, label %16

15:                                               ; preds = %3
  store ptr null, ptr %4, align 8
  store i32 1, ptr %10, align 4
  br label %56

16:                                               ; preds = %3
  %17 = call noalias ptr @CRYPTO_zalloc(i64 noundef 256, ptr noundef @.str, i32 noundef 93)
  store ptr %17, ptr %8, align 8, !tbaa !3
  %18 = load ptr, ptr %8, align 8, !tbaa !3
  %19 = icmp ne ptr %18, null
  br i1 %19, label %20, label %52

20:                                               ; preds = %16
  %21 = load ptr, ptr %5, align 8, !tbaa !28
  %22 = load ptr, ptr %8, align 8, !tbaa !3
  %23 = getelementptr inbounds nuw %struct.ml_dsa_key_st, ptr %22, i32 0, i32 0
  store ptr %21, ptr %23, align 8, !tbaa !30
  %24 = load ptr, ptr %9, align 8, !tbaa !29
  %25 = load ptr, ptr %8, align 8, !tbaa !3
  %26 = getelementptr inbounds nuw %struct.ml_dsa_key_st, ptr %25, i32 0, i32 1
  store ptr %24, ptr %26, align 8, !tbaa !8
  %27 = load ptr, ptr %8, align 8, !tbaa !3
  %28 = getelementptr inbounds nuw %struct.ml_dsa_key_st, ptr %27, i32 0, i32 11
  store i32 1, ptr %28, align 4, !tbaa !19
  %29 = load ptr, ptr %8, align 8, !tbaa !3
  %30 = getelementptr inbounds nuw %struct.ml_dsa_key_st, ptr %29, i32 0, i32 10
  store i32 1, ptr %30, align 8, !tbaa !20
  %31 = load ptr, ptr %5, align 8, !tbaa !28
  %32 = load ptr, ptr %6, align 8, !tbaa !22
  %33 = call ptr @EVP_MD_fetch(ptr noundef %31, ptr noundef @.str.1, ptr noundef %32)
  %34 = load ptr, ptr %8, align 8, !tbaa !3
  %35 = getelementptr inbounds nuw %struct.ml_dsa_key_st, ptr %34, i32 0, i32 2
  store ptr %33, ptr %35, align 8, !tbaa !31
  %36 = load ptr, ptr %5, align 8, !tbaa !28
  %37 = load ptr, ptr %6, align 8, !tbaa !22
  %38 = call ptr @EVP_MD_fetch(ptr noundef %36, ptr noundef @.str.2, ptr noundef %37)
  %39 = load ptr, ptr %8, align 8, !tbaa !3
  %40 = getelementptr inbounds nuw %struct.ml_dsa_key_st, ptr %39, i32 0, i32 3
  store ptr %38, ptr %40, align 8, !tbaa !32
  %41 = load ptr, ptr %8, align 8, !tbaa !3
  %42 = getelementptr inbounds nuw %struct.ml_dsa_key_st, ptr %41, i32 0, i32 2
  %43 = load ptr, ptr %42, align 8, !tbaa !31
  %44 = icmp eq ptr %43, null
  br i1 %44, label %50, label %45

45:                                               ; preds = %20
  %46 = load ptr, ptr %8, align 8, !tbaa !3
  %47 = getelementptr inbounds nuw %struct.ml_dsa_key_st, ptr %46, i32 0, i32 3
  %48 = load ptr, ptr %47, align 8, !tbaa !32
  %49 = icmp eq ptr %48, null
  br i1 %49, label %50, label %51

50:                                               ; preds = %45, %20
  br label %54

51:                                               ; preds = %45
  br label %52

52:                                               ; preds = %51, %16
  %53 = load ptr, ptr %8, align 8, !tbaa !3
  store ptr %53, ptr %4, align 8
  store i32 1, ptr %10, align 4
  br label %56

54:                                               ; preds = %50
  %55 = load ptr, ptr %8, align 8, !tbaa !3
  call void @ossl_ml_dsa_key_free(ptr noundef %55)
  store ptr null, ptr %4, align 8
  store i32 1, ptr %10, align 4
  br label %56

56:                                               ; preds = %54, %52, %15
  call void @llvm.lifetime.end.p0(i64 8, ptr %9) #7
  call void @llvm.lifetime.end.p0(i64 8, ptr %8) #7
  %57 = load ptr, ptr %4, align 8
  ret ptr %57
}