; Function Attrs: nounwind uwtable
define ptr @ossl_ml_dsa_key_new(ptr noundef %0, ptr noundef %1, i32 noundef %2) local_unnamed_addr #1 {
  %4 = tail call ptr @ossl_ml_dsa_params_get(i32 noundef %2) #9
  %5 = icmp eq ptr %4, null
  br i1 %5, label %18, label %6

6:                                                ; preds = %3
  %7 = tail call noalias ptr @CRYPTO_zalloc(i64 noundef 256, ptr noundef nonnull @.str, i32 noundef 93) #9
  %.not = icmp eq ptr %7, null
  br i1 %.not, label %18, label %8

8:                                                ; preds = %6
  store ptr %0, ptr %7, align 8, !tbaa !23
  %9 = getelementptr inbounds nuw i8, ptr %7, i64 8
  store ptr %4, ptr %9, align 8, !tbaa !3
  %10 = getelementptr inbounds nuw i8, ptr %7, i64 188
  store i32 1, ptr %10, align 4, !tbaa !17
  %11 = getelementptr inbounds nuw i8, ptr %7, i64 184
  store i32 1, ptr %11, align 8, !tbaa !18
  %12 = tail call ptr @EVP_MD_fetch(ptr noundef %0, ptr noundef nonnull @.str.1, ptr noundef %1) #9
  %13 = getelementptr inbounds nuw i8, ptr %7, i64 16
  store ptr %12, ptr %13, align 8, !tbaa !24
  %14 = tail call ptr @EVP_MD_fetch(ptr noundef %0, ptr noundef nonnull @.str.2, ptr noundef %1) #9
  %15 = getelementptr inbounds nuw i8, ptr %7, i64 24
  store ptr %14, ptr %15, align 8, !tbaa !25
  %16 = icmp eq ptr %12, null
  %17 = icmp eq ptr %14, null
  %or.cond = select i1 %16, i1 true, i1 %17
  br i1 %or.cond, label %ossl_ml_dsa_key_free.exit, label %18

ossl_ml_dsa_key_free.exit:                        ; preds = %8
  tail call void @EVP_MD_free(ptr noundef %12) #9
  tail call void @EVP_MD_free(ptr noundef %14) #9
  tail call void @ossl_ml_dsa_key_reset(ptr noundef nonnull %7)
  tail call void @CRYPTO_free(ptr noundef nonnull %7, ptr noundef nonnull @.str, i32 noundef 145) #9
  br label %18

18:                                               ; preds = %6, %8, %3, %ossl_ml_dsa_key_free.exit
  %.0 = phi ptr [ null, %ossl_ml_dsa_key_free.exit ], [ null, %3 ], [ %7, %8 ], [ null, %6 ]
  ret ptr %.0
}